; Function Attrs: mustprogress uwtable
define void @_ZNK5faiss22NormalizationTransform13apply_noallocElPKfPf(ptr noundef nonnull readonly align 8 captures(none) dereferenceable(24) %0, i64 noundef %1, ptr noundef readonly captures(none) %2, ptr noundef %3) unnamed_addr #3 align 2 personality ptr @__gxx_personality_v0 {
  %5 = alloca %"class.std::__cxx11::basic_string", align 8
  %6 = alloca %"class.std::allocator", align 1
  %7 = getelementptr inbounds nuw i8, ptr %0, i64 20
  %8 = load float, ptr %7, align 4, !tbaa !130
  %9 = fcmp oeq float %8, 2.000000e+00
  br i1 %9, label %10, label %18

10:                                               ; preds = %4
  %11 = shl i64 %1, 2
  %12 = getelementptr inbounds nuw i8, ptr %0, i64 8
  %13 = load i32, ptr %12, align 8, !tbaa !37
  %14 = sext i32 %13 to i64
  %15 = mul i64 %11, %14
  tail call void @llvm.memcpy.p0.p0.i64(ptr align 4 %3, ptr align 4 %2, i64 %15, i1 false)
  %16 = load i32, ptr %12, align 8, !tbaa !37
  %17 = sext i32 %16 to i64
  tail call void @_ZN5faiss14fvec_renorm_L2EmmPf(i64 noundef %17, i64 noundef %1, ptr noundef %3)
  ret void

18:                                               ; preds = %4
  %19 = tail call ptr @__cxa_allocate_exception(i64 40) #28
  call void @llvm.lifetime.start.p0(i64 32, ptr nonnull %5) #28
  call void @llvm.lifetime.start.p0(i64 1, ptr nonnull %6) #28
  invoke void @_ZNSt7__cxx1112basic_stringIcSt11char_traitsIcESaIcEEC2IS3_EEPKcRKS3_(ptr noundef nonnull align 8 dereferenceable(32) %5, ptr noundef nonnull @.str.71, ptr noundef nonnull align 1 dereferenceable(1) %6)
          to label %20 unwind label %_ZNSt7__cxx1112basic_stringIcSt11char_traitsIcESaIcEED2Ev.exit.thread

20:                                               ; preds = %18
  invoke void @_ZN5faiss14FaissExceptionC1ERKNSt7__cxx1112basic_stringIcSt11char_traitsIcESaIcEEEPKcSA_i(ptr noundef nonnull align 8 dereferenceable(40) %19, ptr noundef nonnull align 8 dereferenceable(32) %5, ptr noundef nonnull @__PRETTY_FUNCTION__._ZNK5faiss22NormalizationTransform13apply_noallocElPKfPf, ptr noundef nonnull @.str.1, i32 noundef 1222)
          to label %21 unwind label %23

21:                                               ; preds = %20
  invoke void @__cxa_throw(ptr nonnull %19, ptr nonnull @_ZTIN5faiss14FaissExceptionE, ptr nonnull @_ZN5faiss14FaissExceptionD2Ev) #29
          to label %35 unwind label %23

_ZNSt7__cxx1112basic_stringIcSt11char_traitsIcESaIcEED2Ev.exit.thread: ; preds = %18
  %22 = landingpad { ptr, i32 }
          cleanup
  call void @llvm.lifetime.end.p0(i64 1, ptr nonnull %6) #28
  call void @llvm.lifetime.end.p0(i64 32, ptr nonnull %5) #28
  br label %33

23:                                               ; preds = %21, %20
  %.0 = phi i1 [ false, %21 ], [ true, %20 ]
  %24 = landingpad { ptr, i32 }
          cleanup
  %25 = load ptr, ptr %5, align 8, !tbaa !12
  %26 = getelementptr inbounds nuw i8, ptr %5, i64 16
  %27 = icmp eq ptr %25, %26
  br i1 %27, label %_ZNKSt7__cxx1112basic_stringIcSt11char_traitsIcESaIcEE11_M_is_localEv.exit.thread.i.i, label %_ZNSt7__cxx1112basic_stringIcSt11char_traitsIcESaIcEED2Ev.exit

_ZNKSt7__cxx1112basic_stringIcSt11char_traitsIcESaIcEE11_M_is_localEv.exit.thread.i.i: ; preds = %23
  %28 = getelementptr inbounds nuw i8, ptr %5, i64 8
  %29 = load i64, ptr %28, align 8, !tbaa !15
  %30 = icmp ult i64 %29, 16
  call void @llvm.assume(i1 %30)
  call void @llvm.lifetime.end.p0(i64 1, ptr nonnull %6) #28
  call void @llvm.lifetime.end.p0(i64 32, ptr nonnull %5) #28
  br i1 %.0, label %33, label %34

_ZNSt7__cxx1112basic_stringIcSt11char_traitsIcESaIcEED2Ev.exit: ; preds = %23
  %31 = load i64, ptr %26, align 8, !tbaa !14
  %32 = add i64 %31, 1
  call void @_ZdlPvm(ptr noundef %25, i64 noundef %32) #30
  call void @llvm.lifetime.end.p0(i64 1, ptr nonnull %6) #28
  call void @llvm.lifetime.end.p0(i64 32, ptr nonnull %5) #28
  br i1 %.0, label %33, label %34

33:                                               ; preds = %_ZNKSt7__cxx1112basic_stringIcSt11char_traitsIcESaIcEE11_M_is_localEv.exit.thread.i.i, %_ZNSt7__cxx1112basic_stringIcSt11char_traitsIcESaIcEED2Ev.exit.thread, %_ZNSt7__cxx1112basic_stringIcSt11char_traitsIcESaIcEED2Ev.exit
  %.pn14 = phi { ptr, i32 } [ %22, %_ZNSt7__cxx1112basic_stringIcSt11char_traitsIcESaIcEED2Ev.exit.thread ], [ %24, %_ZNSt7__cxx1112basic_stringIcSt11char_traitsIcESaIcEED2Ev.exit ], [ %24, %_ZNKSt7__cxx1112basic_stringIcSt11char_traitsIcESaIcEE11_M_is_localEv.exit.thread.i.i ]
  call void @__cxa_free_exception(ptr %19) #28
  br label %34

34:                                               ; preds = %_ZNKSt7__cxx1112basic_stringIcSt11char_traitsIcESaIcEE11_M_is_localEv.exit.thread.i.i, %_ZNSt7__cxx1112basic_stringIcSt11char_traitsIcESaIcEED2Ev.exit, %33
  %.pn13 = phi { ptr, i32 } [ %24, %_ZNSt7__cxx1112basic_stringIcSt11char_traitsIcESaIcEED2Ev.exit ], [ %.pn14, %33 ], [ %24, %_ZNKSt7__cxx1112basic_stringIcSt11char_traitsIcESaIcEE11_M_is_localEv.exit.thread.i.i ]
  resume { ptr, i32 } %.pn13

35:                                               ; preds = %21
  unreachable
}